; Function Attrs: mustprogress nounwind uwtable
define void @_ZN6icu_7714TimeZoneFormat18adoptTimeZoneNamesEPNS_13TimeZoneNamesE(ptr noundef nonnull align 8 captures(none) dereferenceable(1024) %0, ptr noundef %1) local_unnamed_addr #0 align 2 {
  %3 = getelementptr inbounds nuw i8, ptr %0, i64 256
  %4 = load ptr, ptr %3, align 8, !tbaa !41
  %5 = icmp eq ptr %4, null
  br i1 %5, label %10, label %6

6:                                                ; preds = %2
  %7 = load ptr, ptr %4, align 8, !tbaa !15
  %8 = getelementptr inbounds nuw i8, ptr %7, i64 8
  %9 = load ptr, ptr %8, align 8
  tail call void %9(ptr noundef nonnull align 8 dereferenceable(8) %4) #22
  br label %10

10:                                               ; preds = %6, %2
  store ptr %1, ptr %3, align 8, !tbaa !41
  ret void
}